target datalayout = "e-m:e-p270:32:32-p271:32:32-p272:64:64-i64:64-i128:128-f80:128-n8:16:32:64-S128"
target triple = "x86_64-pc-linux-gnu"

%struct.AVRational = type { i32, i32 }
%struct.AVChannelLayout = type { i32, i32, %union.anon.0, ptr }
%union.anon.0 = type { i64 }
%struct.GetByteContext = type { ptr, ptr, ptr }
%struct.SGAVideoContext = type { %struct.GetByteContext, i32, i32, i32, i32, i32, i32, i32, i32, i32, i32, i32, i32, i32, i32, i32, i32, i32, [256 x i32], ptr, i32, ptr, i32, [65536 x i8] }
%struct.AVFrame = type { [8 x ptr], [8 x i32], ptr, i32, i32, i32, i32, i32, %struct.AVRational, i64, i64, %struct.AVRational, i32, ptr, i32, i32, [8 x ptr], ptr, i32, ptr, i32, i32, i32, i32, i32, i32, i32, i64, ptr, i32, ptr, ptr, i64, i64, i64, i64, ptr, %struct.AVChannelLayout, i64 }

; Function Attrs: nounwind uwtable
define internal i32 @decode_index(ptr noundef %0, ptr noundef %1) #1 {
  %3 = alloca ptr, align 8
  %4 = alloca ptr, align 8
  %5 = alloca ptr, align 8
  %6 = alloca ptr, align 8
  %7 = alloca i32, align 4
  %8 = alloca i32, align 4
  %9 = alloca i32, align 4
  %10 = alloca i32, align 4
  %11 = alloca i32, align 4
  store ptr %0, ptr %3, align 8, !tbaa !35
  store ptr %1, ptr %4, align 8, !tbaa !29
  call void @llvm.lifetime.start.p0(i64 8, ptr %5) #10
  %12 = load ptr, ptr %3, align 8, !tbaa !35
  %13 = getelementptr inbounds nuw %struct.SGAVideoContext, ptr %12, i32 0, i32 19
  %14 = load ptr, ptr %13, align 8, !tbaa !52
  store ptr %14, ptr %5, align 8, !tbaa !72
  call void @llvm.lifetime.start.p0(i64 8, ptr %6) #10
  %15 = load ptr, ptr %4, align 8, !tbaa !29
  %16 = getelementptr inbounds nuw %struct.AVFrame, ptr %15, i32 0, i32 0
  %17 = getelementptr inbounds [8 x ptr], ptr %16, i64 0, i64 0
  %18 = load ptr, ptr %17, align 8, !tbaa !72
  store ptr %18, ptr %6, align 8, !tbaa !72
  call void @llvm.lifetime.start.p0(i64 4, ptr %7) #10
  store i32 0, ptr %7, align 4, !tbaa !49
  br label %19

19:                                               ; preds = %85, %2
  %20 = load i32, ptr %7, align 4, !tbaa !49
  %21 = load ptr, ptr %4, align 8, !tbaa !29
  %22 = getelementptr inbounds nuw %struct.AVFrame, ptr %21, i32 0, i32 4
  %23 = load i32, ptr %22, align 4, !tbaa !119
  %24 = icmp slt i32 %20, %23
  br i1 %24, label %26, label %25

25:                                               ; preds = %19
  store i32 2, ptr %8, align 4
  call void @llvm.lifetime.end.p0(i64 4, ptr %7) #10
  br label %88

26:                                               ; preds = %19
  call void @llvm.lifetime.start.p0(i64 4, ptr %9) #10
  store i32 0, ptr %9, align 4, !tbaa !49
  br label %27

27:                                               ; preds = %73, %26
  %28 = load i32, ptr %9, align 4, !tbaa !49
  %29 = load ptr, ptr %4, align 8, !tbaa !29
  %30 = getelementptr inbounds nuw %struct.AVFrame, ptr %29, i32 0, i32 3
  %31 = load i32, ptr %30, align 8, !tbaa !120
  %32 = icmp slt i32 %28, %31
  br i1 %32, label %34, label %33

33:                                               ; preds = %27
  store i32 5, ptr %8, align 4
  call void @llvm.lifetime.end.p0(i64 4, ptr %9) #10
  br label %76

34:                                               ; preds = %27
  call void @llvm.lifetime.start.p0(i64 4, ptr %10) #10
  store i32 0, ptr %10, align 4, !tbaa !49
  br label %35

35:                                               ; preds = %69, %34
  %36 = load i32, ptr %10, align 4, !tbaa !49
  %37 = icmp slt i32 %36, 8
  br i1 %37, label %39, label %38

38:                                               ; preds = %35
  store i32 8, ptr %8, align 4
  call void @llvm.lifetime.end.p0(i64 4, ptr %10) #10
  br label %72

39:                                               ; preds = %35
  call void @llvm.lifetime.start.p0(i64 4, ptr %11) #10
  store i32 0, ptr %11, align 4, !tbaa !49
  br label %40

40:                                               ; preds = %63, %39
  %41 = load i32, ptr %11, align 4, !tbaa !49
  %42 = icmp slt i32 %41, 8
  br i1 %42, label %44, label %43

43:                                               ; preds = %40
  store i32 11, ptr %8, align 4
  call void @llvm.lifetime.end.p0(i64 4, ptr %11) #10
  br label %66

44:                                               ; preds = %40
  %45 = load ptr, ptr %5, align 8, !tbaa !72
  %46 = load i32, ptr %11, align 4, !tbaa !49
  %47 = sext i32 %46 to i64
  %48 = getelementptr inbounds i8, ptr %45, i64 %47
  %49 = load i8, ptr %48, align 1, !tbaa !42
  %50 = load ptr, ptr %6, align 8, !tbaa !72
  %51 = load i32, ptr %9, align 4, !tbaa !49
  %52 = load i32, ptr %11, align 4, !tbaa !49
  %53 = add nsw i32 %51, %52
  %54 = load i32, ptr %10, align 4, !tbaa !49
  %55 = load ptr, ptr %4, align 8, !tbaa !29
  %56 = getelementptr inbounds nuw %struct.AVFrame, ptr %55, i32 0, i32 1
  %57 = getelementptr inbounds [8 x i32], ptr %56, i64 0, i64 0
  %58 = load i32, ptr %57, align 8, !tbaa !49
  %59 = mul nsw i32 %54, %58
  %60 = add nsw i32 %53, %59
  %61 = sext i32 %60 to i64
  %62 = getelementptr inbounds i8, ptr %50, i64 %61
  store i8 %49, ptr %62, align 1, !tbaa !42
  br label %63

63:                                               ; preds = %44
  %64 = load i32, ptr %11, align 4, !tbaa !49
  %65 = add nsw i32 %64, 1
  store i32 %65, ptr %11, align 4, !tbaa !49
  br label %40, !llvm.loop !121

66:                                               ; preds = %43
  %67 = load ptr, ptr %5, align 8, !tbaa !72
  %68 = getelementptr inbounds i8, ptr %67, i64 8
  store ptr %68, ptr %5, align 8, !tbaa !72
  br label %69

69:                                               ; preds = %66
  %70 = load i32, ptr %10, align 4, !tbaa !49
  %71 = add nsw i32 %70, 1
  store i32 %71, ptr %10, align 4, !tbaa !49
  br label %35, !llvm.loop !122

72:                                               ; preds = %38
  br label %73

73:                                               ; preds = %72
  %74 = load i32, ptr %9, align 4, !tbaa !49
  %75 = add nsw i32 %74, 8
  store i32 %75, ptr %9, align 4, !tbaa !49
  br label %27, !llvm.loop !123

76:                                               ; preds = %33
  %77 = load ptr, ptr %4, align 8, !tbaa !29
  %78 = getelementptr inbounds nuw %struct.AVFrame, ptr %77, i32 0, i32 1
  %79 = getelementptr inbounds [8 x i32], ptr %78, i64 0, i64 0
  %80 = load i32, ptr %79, align 8, !tbaa !49
  %81 = mul nsw i32 8, %80
  %82 = load ptr, ptr %6, align 8, !tbaa !72
  %83 = sext i32 %81 to i64
  %84 = getelementptr inbounds i8, ptr %82, i64 %83
  store ptr %84, ptr %6, align 8, !tbaa !72
  br label %85

85:                                               ; preds = %76
  %86 = load i32, ptr %7, align 4, !tbaa !49
  %87 = add nsw i32 %86, 8
  store i32 %87, ptr %7, align 4, !tbaa !49
  br label %19, !llvm.loop !124

88:                                               ; preds = %25
  store i32 1, ptr %8, align 4
  call void @llvm.lifetime.end.p0(i64 8, ptr %6) #10
  call void @llvm.lifetime.end.p0(i64 8, ptr %5) #10
  ret i32 0
}