; Function Attrs: nofree norecurse nosync nounwind memory(write, argmem: readwrite, inaccessiblemem: none) uwtable
define internal fastcc void @decode_index(ptr readonly captures(none) %.1120.val, ptr noundef readonly captures(none) %0) unnamed_addr #8 {
  %2 = getelementptr inbounds nuw i8, ptr %0, i64 108
  %3 = load i32, ptr %2, align 4, !tbaa !105
  %4 = icmp sgt i32 %3, 0
  br i1 %4, label %.preheader2.lr.ph, label %._crit_edge11

.preheader2.lr.ph:                                ; preds = %1
  %5 = getelementptr inbounds nuw i8, ptr %0, i64 104
  %6 = getelementptr inbounds nuw i8, ptr %0, i64 64
  %7 = load i32, ptr %5, align 8, !tbaa !106
  %8 = icmp sgt i32 %7, 0
  br i1 %8, label %.preheader2.preheader, label %._crit_edge11

.preheader2.preheader:                            ; preds = %.preheader2.lr.ph
  %9 = load ptr, ptr %0, align 8, !tbaa !45
  br label %.preheader2

.preheader2:                                      ; preds = %.preheader2.preheader, %._crit_edge
  %10 = phi i32 [ %13, %._crit_edge ], [ %3, %.preheader2.preheader ]
  %11 = phi i32 [ %14, %._crit_edge ], [ %7, %.preheader2.preheader ]
  %.02310 = phi i32 [ %19, %._crit_edge ], [ 0, %.preheader2.preheader ]
  %.0249 = phi ptr [ %18, %._crit_edge ], [ %9, %.preheader2.preheader ]
  %.0258 = phi ptr [ %.1.lcssa, %._crit_edge ], [ %.1120.val, %.preheader2.preheader ]
  %12 = icmp sgt i32 %11, 0
  br i1 %12, label %.preheader1, label %._crit_edge

._crit_edge11:                                    ; preds = %._crit_edge, %.preheader2.lr.ph, %1
  ret void

.preheader1:                                      ; preds = %.preheader2, %21
  %indvars.iv15 = phi i64 [ %indvars.iv.next16, %21 ], [ 0, %.preheader2 ]
  %.16 = phi ptr [ %26, %21 ], [ %.0258, %.preheader2 ]
  br label %.preheader

._crit_edge.loopexit:                             ; preds = %21
  %.pre = load i32, ptr %2, align 4, !tbaa !105
  br label %._crit_edge

._crit_edge:                                      ; preds = %._crit_edge.loopexit, %.preheader2
  %13 = phi i32 [ %10, %.preheader2 ], [ %.pre, %._crit_edge.loopexit ]
  %14 = phi i32 [ %11, %.preheader2 ], [ %22, %._crit_edge.loopexit ]
  %.1.lcssa = phi ptr [ %.0258, %.preheader2 ], [ %26, %._crit_edge.loopexit ]
  %15 = load i32, ptr %6, align 8, !tbaa !51
  %16 = shl nsw i32 %15, 3
  %17 = sext i32 %16 to i64
  %18 = getelementptr inbounds i8, ptr %.0249, i64 %17
  %19 = add nuw nsw i32 %.02310, 8
  %20 = icmp slt i32 %19, %13
  br i1 %20, label %.preheader2, label %._crit_edge11, !llvm.loop !107

.preheader:                                       ; preds = %.preheader1, %25
  %.0215 = phi i32 [ 0, %.preheader1 ], [ %27, %25 ]
  %.24 = phi ptr [ %.16, %.preheader1 ], [ %26, %25 ]
  br label %28

21:                                               ; preds = %25
  %indvars.iv.next16 = add nuw nsw i64 %indvars.iv15, 8
  %22 = load i32, ptr %5, align 8, !tbaa !106
  %23 = sext i32 %22 to i64
  %24 = icmp slt i64 %indvars.iv.next16, %23
  br i1 %24, label %.preheader1, label %._crit_edge.loopexit, !llvm.loop !108

25:                                               ; preds = %28
  %26 = getelementptr inbounds nuw i8, ptr %.24, i64 8
  %27 = add nuw nsw i32 %.0215, 1
  %exitcond14.not = icmp eq i32 %27, 8
  br i1 %exitcond14.not, label %21, label %.preheader, !llvm.loop !109

28:                                               ; preds = %.preheader, %28
  %indvars.iv = phi i64 [ 0, %.preheader ], [ %indvars.iv.next, %28 ]
  %29 = getelementptr inbounds nuw i8, ptr %.24, i64 %indvars.iv
  %30 = load i8, ptr %29, align 1, !tbaa !31
  %31 = add nuw nsw i64 %indvars.iv, %indvars.iv15
  %32 = load i32, ptr %6, align 8, !tbaa !51
  %33 = mul nsw i32 %32, %.0215
  %34 = trunc nuw nsw i64 %31 to i32
  %35 = add nsw i32 %33, %34
  %36 = sext i32 %35 to i64
  %37 = getelementptr inbounds i8, ptr %.0249, i64 %36
  store i8 %30, ptr %37, align 1, !tbaa !31
  %indvars.iv.next = add nuw nsw i64 %indvars.iv, 1
  %exitcond.not = icmp eq i64 %indvars.iv.next, 8
  br i1 %exitcond.not, label %25, label %28, !llvm.loop !110
}